target datalayout = "e-m:e-p270:32:32-p271:32:32-p272:64:64-i64:64-i128:128-f80:128-n8:16:32:64-S128"
target triple = "x86_64-unknown-linux-gnu"

%"class.std::__cxx11::basic_string" = type { %"struct.std::__cxx11::basic_string<char>::_Alloc_hider", i64, %union.anon }
%"struct.std::__cxx11::basic_string<char>::_Alloc_hider" = type { ptr }
%union.anon = type { i64, [8 x i8] }
%"class.rocksdb::Slice" = type { ptr, i64 }

@stdout = external global ptr, align 8
@.str.24 = private unnamed_addr constant [4 x i8] c"%s\0A\00", align 1
@.str.25 = private unnamed_addr constant [3 x i8] c"%x\00", align 1
@.str.26 = private unnamed_addr constant [3 x i8] c"%c\00", align 1

; Function Attrs: mustprogress nounwind uwtable
define linkonce_odr noundef signext i8 @_ZNK7rocksdb5SliceixEm(ptr noundef nonnull align 8 dereferenceable(16) %this, i64 noundef %n) #5 comdat align 2 {
entry:
  %this.addr = alloca ptr, align 8
  %n.addr = alloca i64, align 8
  store ptr %this, ptr %this.addr, align 8
  store i64 %n, ptr %n.addr, align 8
  %this1 = load ptr, ptr %this.addr, align 8
  %data_ = getelementptr inbounds %"class.rocksdb::Slice", ptr %this1, i32 0, i32 0
  %0 = load ptr, ptr %data_, align 8
  %1 = load i64, ptr %n.addr, align 8
  %arrayidx = getelementptr inbounds i8, ptr %0, i64 %1
  %2 = load i8, ptr %arrayidx, align 1
  ret i8 %2
}

; Function Attrs: mustprogress nounwind uwtable
define linkonce_odr noundef i64 @_ZNK7rocksdb5Slice4sizeEv(ptr noundef nonnull align 8 dereferenceable(16) %this) #5 comdat align 2 {
entry:
  %this.addr = alloca ptr, align 8
  store ptr %this, ptr %this.addr, align 8
  %this1 = load ptr, ptr %this.addr, align 8
  %size_ = getelementptr inbounds %"class.rocksdb::Slice", ptr %this1, i32 0, i32 1
  %0 = load i64, ptr %size_, align 8
  ret i64 %0
}

; Function Attrs: mustprogress uwtable
define void @_ZN7rocksdb7blob_db12BlobDumpTool9DumpSliceENS_5SliceENS1_11DisplayTypeE(ptr noundef nonnull align 8 dereferenceable(24) %this, ptr %s.coerce0, i64 %s.coerce1, i32 noundef %type) #4 align 2 personality ptr @__gxx_personality_v0 {
entry:
  %s = alloca %"class.rocksdb::Slice", align 8
  %this.addr = alloca ptr, align 8
  %type.addr = alloca i32, align 4
  %ref.tmp = alloca %"class.std::__cxx11::basic_string", align 8
  %exn.slot = alloca ptr, align 8
  %ehselector.slot = alloca i32, align 4
  %ref.tmp5 = alloca %"class.std::__cxx11::basic_string", align 8
  %buf = alloca [100 x i8], align 16
  %i = alloca i64, align 8
  %j = alloca i64, align 8
  %c = alloca i8, align 1
  %p = alloca i64, align 8
  %0 = getelementptr inbounds { ptr, i64 }, ptr %s, i32 0, i32 0
  store ptr %s.coerce0, ptr %0, align 8
  %1 = getelementptr inbounds { ptr, i64 }, ptr %s, i32 0, i32 1
  store i64 %s.coerce1, ptr %1, align 8
  store ptr %this, ptr %this.addr, align 8
  store i32 %type, ptr %type.addr, align 4
  %2 = load i32, ptr %type.addr, align 4
  %cmp = icmp eq i32 %2, 1
  br i1 %cmp, label %if.then, label %if.else

if.then:                                          ; preds = %entry
  %3 = load ptr, ptr @stdout, align 8
  call void @_ZNK7rocksdb5Slice8ToStringB5cxx11Eb(ptr sret(%"class.std::__cxx11::basic_string") align 8 %ref.tmp, ptr noundef nonnull align 8 dereferenceable(16) %s, i1 noundef zeroext false)
  %call = call noundef ptr @_ZNKSt7__cxx1112basic_stringIcSt11char_traitsIcESaIcEE5c_strEv(ptr noundef nonnull align 8 dereferenceable(32) %ref.tmp) #3
  %call2 = invoke i32 (ptr, ptr, ...) @fprintf(ptr noundef %3, ptr noundef @.str.24, ptr noundef %call)
          to label %invoke.cont unwind label %lpad

invoke.cont:                                      ; preds = %if.then
  call void @_ZNSt7__cxx1112basic_stringIcSt11char_traitsIcESaIcEED1Ev(ptr noundef nonnull align 8 dereferenceable(32) %ref.tmp) #3
  br label %if.end65

lpad:                                             ; preds = %if.then
  %4 = landingpad { ptr, i32 }
          cleanup
  %5 = extractvalue { ptr, i32 } %4, 0
  store ptr %5, ptr %exn.slot, align 8
  %6 = extractvalue { ptr, i32 } %4, 1
  store i32 %6, ptr %ehselector.slot, align 4
  call void @_ZNSt7__cxx1112basic_stringIcSt11char_traitsIcESaIcEED1Ev(ptr noundef nonnull align 8 dereferenceable(32) %ref.tmp) #3
  br label %eh.resume

if.else:                                          ; preds = %entry
  %7 = load i32, ptr %type.addr, align 4
  %cmp3 = icmp eq i32 %7, 2
  br i1 %cmp3, label %if.then4, label %if.else10

if.then4:                                         ; preds = %if.else
  %8 = load ptr, ptr @stdout, align 8
  call void @_ZNK7rocksdb5Slice8ToStringB5cxx11Eb(ptr sret(%"class.std::__cxx11::basic_string") align 8 %ref.tmp5, ptr noundef nonnull align 8 dereferenceable(16) %s, i1 noundef zeroext true)
  %call6 = call noundef ptr @_ZNKSt7__cxx1112basic_stringIcSt11char_traitsIcESaIcEE5c_strEv(ptr noundef nonnull align 8 dereferenceable(32) %ref.tmp5) #3
  %call9 = invoke i32 (ptr, ptr, ...) @fprintf(ptr noundef %8, ptr noundef @.str.24, ptr noundef %call6)
          to label %invoke.cont8 unwind label %lpad7

invoke.cont8:                                     ; preds = %if.then4
  call void @_ZNSt7__cxx1112basic_stringIcSt11char_traitsIcESaIcEED1Ev(ptr noundef nonnull align 8 dereferenceable(32) %ref.tmp5) #3
  br label %if.end64

lpad7:                                            ; preds = %if.then4
  %9 = landingpad { ptr, i32 }
          cleanup
  %10 = extractvalue { ptr, i32 } %9, 0
  store ptr %10, ptr %exn.slot, align 8
  %11 = extractvalue { ptr, i32 } %9, 1
  store i32 %11, ptr %ehselector.slot, align 4
  call void @_ZNSt7__cxx1112basic_stringIcSt11char_traitsIcESaIcEED1Ev(ptr noundef nonnull align 8 dereferenceable(32) %ref.tmp5) #3
  br label %eh.resume

if.else10:                                        ; preds = %if.else
  %12 = load i32, ptr %type.addr, align 4
  %cmp11 = icmp eq i32 %12, 3
  br i1 %cmp11, label %if.then12, label %if.end63

if.then12:                                        ; preds = %if.else10
  store i64 0, ptr %i, align 8
  br label %for.cond

for.cond:                                         ; preds = %for.inc60, %if.then12
  %13 = load i64, ptr %i, align 8
  %call13 = call noundef i64 @_ZNK7rocksdb5Slice4sizeEv(ptr noundef nonnull align 8 dereferenceable(16) %s)
  %cmp14 = icmp ult i64 %13, %call13
  br i1 %cmp14, label %for.body, label %for.end62

for.body:                                         ; preds = %for.cond
  %arraydecay = getelementptr inbounds [100 x i8], ptr %buf, i64 0, i64 0
  call void @llvm.memset.p0.i64(ptr align 16 %arraydecay, i8 0, i64 100, i1 false)
  store i64 0, ptr %j, align 8
  br label %for.cond15

for.cond15:                                       ; preds = %for.inc, %for.body
  %14 = load i64, ptr %j, align 8
  %cmp16 = icmp ult i64 %14, 16
  br i1 %cmp16, label %land.rhs, label %land.end

land.rhs:                                         ; preds = %for.cond15
  %15 = load i64, ptr %i, align 8
  %16 = load i64, ptr %j, align 8
  %add = add i64 %15, %16
  %call17 = call noundef i64 @_ZNK7rocksdb5Slice4sizeEv(ptr noundef nonnull align 8 dereferenceable(16) %s)
  %cmp18 = icmp ult i64 %add, %call17
  br label %land.end

land.end:                                         ; preds = %land.rhs, %for.cond15
  %17 = phi i1 [ false, %for.cond15 ], [ %cmp18, %land.rhs ]
  br i1 %17, label %for.body19, label %for.end

for.body19:                                       ; preds = %land.end
  %18 = load i64, ptr %i, align 8
  %19 = load i64, ptr %j, align 8
  %add20 = add i64 %18, %19
  %call21 = call noundef signext i8 @_ZNK7rocksdb5SliceixEm(ptr noundef nonnull align 8 dereferenceable(16) %s, i64 noundef %add20)
  store i8 %call21, ptr %c, align 1
  %arraydecay22 = getelementptr inbounds [100 x i8], ptr %buf, i64 0, i64 0
  %20 = load i64, ptr %j, align 8
  %mul = mul i64 %20, 3
  %add.ptr = getelementptr inbounds i8, ptr %arraydecay22, i64 %mul
  %add.ptr23 = getelementptr inbounds i8, ptr %add.ptr, i64 15
  %21 = load i8, ptr %c, align 1
  %conv = zext i8 %21 to i32
  %shr = ashr i32 %conv, 4
  %call24 = call i32 (ptr, i64, ptr, ...) @snprintf(ptr noundef %add.ptr23, i64 noundef 2, ptr noundef @.str.25, i32 noundef %shr) #3
  %arraydecay25 = getelementptr inbounds [100 x i8], ptr %buf, i64 0, i64 0
  %22 = load i64, ptr %j, align 8
  %mul26 = mul i64 %22, 3
  %add.ptr27 = getelementptr inbounds i8, ptr %arraydecay25, i64 %mul26
  %add.ptr28 = getelementptr inbounds i8, ptr %add.ptr27, i64 16
  %23 = load i8, ptr %c, align 1
  %conv29 = zext i8 %23 to i32
  %and = and i32 %conv29, 15
  %call30 = call i32 (ptr, i64, ptr, ...) @snprintf(ptr noundef %add.ptr28, i64 noundef 2, ptr noundef @.str.25, i32 noundef %and) #3
  %arraydecay31 = getelementptr inbounds [100 x i8], ptr %buf, i64 0, i64 0
  %24 = load i64, ptr %j, align 8
  %add.ptr32 = getelementptr inbounds i8, ptr %arraydecay31, i64 %24
  %add.ptr33 = getelementptr inbounds i8, ptr %add.ptr32, i64 65
  %25 = load i8, ptr %c, align 1
  %conv34 = zext i8 %25 to i32
  %cmp35 = icmp sle i32 32, %conv34
  br i1 %cmp35, label %land.lhs.true, label %cond.false

land.lhs.true:                                    ; preds = %for.body19
  %26 = load i8, ptr %c, align 1
  %conv36 = zext i8 %26 to i32
  %cmp37 = icmp sle i32 %conv36, 126
  br i1 %cmp37, label %cond.true, label %cond.false

cond.true:                                        ; preds = %land.lhs.true
  %27 = load i8, ptr %c, align 1
  %conv38 = zext i8 %27 to i32
  br label %cond.end

cond.false:                                       ; preds = %land.lhs.true, %for.body19
  br label %cond.end

cond.end:                                         ; preds = %cond.false, %cond.true
  %cond = phi i32 [ %conv38, %cond.true ], [ 46, %cond.false ]
  %call39 = call i32 (ptr, i64, ptr, ...) @snprintf(ptr noundef %add.ptr33, i64 noundef 2, ptr noundef @.str.26, i32 noundef %cond) #3
  br label %for.inc

for.inc:                                          ; preds = %cond.end
  %28 = load i64, ptr %j, align 8
  %inc = add i64 %28, 1
  store i64 %inc, ptr %j, align 8
  br label %for.cond15, !llvm.loop !8

for.end:                                          ; preds = %land.end
  store i64 0, ptr %p, align 8
  br label %for.cond40

for.cond40:                                       ; preds = %for.inc48, %for.end
  %29 = load i64, ptr %p, align 8
  %add41 = add i64 %29, 1
  %cmp42 = icmp ult i64 %add41, 100
  br i1 %cmp42, label %for.body43, label %for.end50

for.body43:                                       ; preds = %for.cond40
  %30 = load i64, ptr %p, align 8
  %arrayidx = getelementptr inbounds [100 x i8], ptr %buf, i64 0, i64 %30
  %31 = load i8, ptr %arrayidx, align 1
  %conv44 = sext i8 %31 to i32
  %cmp45 = icmp eq i32 %conv44, 0
  br i1 %cmp45, label %if.then46, label %if.end

if.then46:                                        ; preds = %for.body43
  %32 = load i64, ptr %p, align 8
  %arrayidx47 = getelementptr inbounds [100 x i8], ptr %buf, i64 0, i64 %32
  store i8 32, ptr %arrayidx47, align 1
  br label %if.end

if.end:                                           ; preds = %if.then46, %for.body43
  br label %for.inc48

for.inc48:                                        ; preds = %if.end
  %33 = load i64, ptr %p, align 8
  %inc49 = add i64 %33, 1
  store i64 %inc49, ptr %p, align 8
  br label %for.cond40, !llvm.loop !9

for.end50:                                        ; preds = %for.cond40
  %34 = load ptr, ptr @stdout, align 8
  %35 = load i64, ptr %i, align 8
  %cmp51 = icmp eq i64 %35, 0
  br i1 %cmp51, label %cond.true52, label %cond.false55

cond.true52:                                      ; preds = %for.end50
  %arraydecay53 = getelementptr inbounds [100 x i8], ptr %buf, i64 0, i64 0
  %add.ptr54 = getelementptr inbounds i8, ptr %arraydecay53, i64 15
  br label %cond.end57

cond.false55:                                     ; preds = %for.end50
  %arraydecay56 = getelementptr inbounds [100 x i8], ptr %buf, i64 0, i64 0
  br label %cond.end57

cond.end57:                                       ; preds = %cond.false55, %cond.true52
  %cond58 = phi ptr [ %add.ptr54, %cond.true52 ], [ %arraydecay56, %cond.false55 ]
  %call59 = call i32 (ptr, ptr, ...) @fprintf(ptr noundef %34, ptr noundef @.str.24, ptr noundef %cond58)
  br label %for.inc60

for.inc60:                                        ; preds = %cond.end57
  %36 = load i64, ptr %i, align 8
  %add61 = add i64 %36, 16
  store i64 %add61, ptr %i, align 8
  br label %for.cond, !llvm.loop !10

for.end62:                                        ; preds = %for.cond
  br label %if.end63

if.end63:                                         ; preds = %for.end62, %if.else10
  br label %if.end64

if.end64:                                         ; preds = %if.end63, %invoke.cont8
  br label %if.end65

if.end65:                                         ; preds = %if.end64, %invoke.cont
  ret void

eh.resume:                                        ; preds = %lpad7, %lpad
  %exn = load ptr, ptr %exn.slot, align 8
  %sel = load i32, ptr %ehselector.slot, align 4
  %lpad.val = insertvalue { ptr, i32 } poison, ptr %exn, 0
  %lpad.val66 = insertvalue { ptr, i32 } %lpad.val, i32 %sel, 1
  resume { ptr, i32 } %lpad.val66
}