; Function Attrs: mustprogress uwtable
define void @_ZN7rocksdb7blob_db12BlobDumpTool9DumpSliceENS_5SliceENS1_11DisplayTypeE(ptr nocapture nonnull readnone align 8 %this, ptr %s.coerce0, i64 %s.coerce1, i32 noundef %type) local_unnamed_addr #4 align 2 personality ptr @__gxx_personality_v0 {
entry:
  %s = alloca %"class.rocksdb::Slice", align 8
  %ref.tmp = alloca %"class.std::__cxx11::basic_string", align 8
  %ref.tmp5 = alloca %"class.std::__cxx11::basic_string", align 8
  %buf = alloca [100 x i8], align 16
  store ptr %s.coerce0, ptr %s, align 8
  %0 = getelementptr inbounds i8, ptr %s, i64 8
  store i64 %s.coerce1, ptr %0, align 8
  switch i32 %type, label %if.end65 [
    i32 1, label %if.then
    i32 2, label %if.then4
    i32 3, label %for.cond.preheader
  ]

for.cond.preheader:                               ; preds = %entry
  %cmp1425.not = icmp eq i64 %s.coerce1, 0
  br i1 %cmp1425.not, label %if.end65, label %for.body

if.then:                                          ; preds = %entry
  %1 = load ptr, ptr @stdout, align 8
  call void @_ZNK7rocksdb5Slice8ToStringB5cxx11Eb(ptr nonnull sret(%"class.std::__cxx11::basic_string") align 8 %ref.tmp, ptr noundef nonnull align 8 dereferenceable(16) %s, i1 noundef zeroext false)
  br label %if.end65.sink.split

if.then4:                                         ; preds = %entry
  %2 = load ptr, ptr @stdout, align 8
  call void @_ZNK7rocksdb5Slice8ToStringB5cxx11Eb(ptr nonnull sret(%"class.std::__cxx11::basic_string") align 8 %ref.tmp5, ptr noundef nonnull align 8 dereferenceable(16) %s, i1 noundef zeroext true)
  br label %if.end65.sink.split

for.body:                                         ; preds = %for.cond.preheader, %for.end50
  %i.026 = phi i64 [ %add61, %for.end50 ], [ 0, %for.cond.preheader ]
  call void @llvm.memset.p0.i64(ptr noundef nonnull align 16 dereferenceable(100) %buf, i8 0, i64 100, i1 false)
  br label %land.rhs

land.rhs:                                         ; preds = %for.body, %for.body19
  %j.022 = phi i64 [ 0, %for.body ], [ %inc, %for.body19 ]
  %add = or disjoint i64 %j.022, %i.026
  %3 = load i64, ptr %0, align 8
  %cmp18 = icmp ult i64 %add, %3
  br i1 %cmp18, label %for.body19, label %for.body43.preheader

for.body19:                                       ; preds = %land.rhs
  %4 = load ptr, ptr %s, align 8
  %arrayidx.i = getelementptr inbounds i8, ptr %4, i64 %add
  %5 = load i8, ptr %arrayidx.i, align 1
  %mul = mul nuw nsw i64 %j.022, 3
  %add.ptr = getelementptr inbounds i8, ptr %buf, i64 %mul
  %add.ptr23 = getelementptr inbounds i8, ptr %add.ptr, i64 15
  %conv = zext i8 %5 to i32
  %shr = lshr i32 %conv, 4
  %call24 = call i32 (ptr, i64, ptr, ...) @snprintf(ptr noundef nonnull dereferenceable(1) %add.ptr23, i64 noundef 2, ptr noundef nonnull @.str.25, i32 noundef %shr) #16
  %add.ptr28 = getelementptr inbounds i8, ptr %add.ptr, i64 16
  %and = and i32 %conv, 15
  %call30 = call i32 (ptr, i64, ptr, ...) @snprintf(ptr noundef nonnull dereferenceable(1) %add.ptr28, i64 noundef 2, ptr noundef nonnull @.str.25, i32 noundef %and) #16
  %add.ptr32 = getelementptr inbounds i8, ptr %buf, i64 %j.022
  %add.ptr33 = getelementptr inbounds i8, ptr %add.ptr32, i64 65
  %6 = add i8 %5, -32
  %or.cond = icmp ult i8 %6, 95
  %char = select i1 %or.cond, i8 %5, i8 46
  store i8 %char, ptr %add.ptr33, align 1
  %nul = getelementptr inbounds i8, ptr %add.ptr32, i64 66
  store i8 0, ptr %nul, align 1
  %inc = add nuw nsw i64 %j.022, 1
  %exitcond.not = icmp eq i64 %inc, 16
  br i1 %exitcond.not, label %for.body43.preheader, label %land.rhs, !llvm.loop !28

for.body43.preheader:                             ; preds = %for.body19, %land.rhs
  br label %for.body43

for.body43:                                       ; preds = %for.body43.preheader, %for.inc48
  %add4124 = phi i64 [ %add41, %for.inc48 ], [ 1, %for.body43.preheader ]
  %p.023 = phi i64 [ %add4124, %for.inc48 ], [ 0, %for.body43.preheader ]
  %arrayidx = getelementptr inbounds [100 x i8], ptr %buf, i64 0, i64 %p.023
  %7 = load i8, ptr %arrayidx, align 1
  %cmp45 = icmp eq i8 %7, 0
  br i1 %cmp45, label %if.then46, label %for.inc48

if.then46:                                        ; preds = %for.body43
  store i8 32, ptr %arrayidx, align 1
  br label %for.inc48

for.inc48:                                        ; preds = %for.body43, %if.then46
  %add41 = add nuw nsw i64 %add4124, 1
  %exitcond27.not = icmp eq i64 %add41, 100
  br i1 %exitcond27.not, label %for.end50, label %for.body43, !llvm.loop !29

for.end50:                                        ; preds = %for.inc48
  %8 = load ptr, ptr @stdout, align 8
  %cmp51 = icmp eq i64 %i.026, 0
  %cond58.idx.sroa.sel.idx.sroa.sel.idx.sroa.sel.idx = select i1 %cmp51, i64 15, i64 0
  %cond58.idx.sroa.sel.idx.sroa.sel.idx.sroa.sel = getelementptr inbounds i8, ptr %buf, i64 %cond58.idx.sroa.sel.idx.sroa.sel.idx.sroa.sel.idx
  %call59 = call i32 (ptr, ptr, ...) @fprintf(ptr noundef %8, ptr noundef nonnull @.str.24, ptr noundef nonnull %cond58.idx.sroa.sel.idx.sroa.sel.idx.sroa.sel)
  %add61 = add i64 %i.026, 16
  %9 = load i64, ptr %0, align 8
  %cmp14 = icmp ult i64 %add61, %9
  br i1 %cmp14, label %for.body, label %if.end65, !llvm.loop !30

if.end65.sink.split:                              ; preds = %if.then, %if.then4
  %ref.tmp5.sink29 = phi ptr [ %ref.tmp5, %if.then4 ], [ %ref.tmp, %if.then ]
  %.sink = phi ptr [ %2, %if.then4 ], [ %1, %if.then ]
  %call6 = call noundef ptr @_ZNKSt7__cxx1112basic_stringIcSt11char_traitsIcESaIcEE5c_strEv(ptr noundef nonnull align 8 dereferenceable(32) %ref.tmp5.sink29) #16
  %call9 = call i32 (ptr, ptr, ...) @fprintf(ptr noundef %.sink, ptr noundef nonnull @.str.24, ptr noundef %call6)
  call void @_ZNSt7__cxx1112basic_stringIcSt11char_traitsIcESaIcEED1Ev(ptr noundef nonnull align 8 dereferenceable(32) %ref.tmp5.sink29) #16
  br label %if.end65

if.end65:                                         ; preds = %for.end50, %if.end65.sink.split, %for.cond.preheader, %entry
  ret void
}